; Function Attrs: mustprogress uwtable
define void @_ZNK5faiss8IndexIVF11reconstructElPf(ptr noundef nonnull align 8 dereferenceable(265) %0, i64 noundef %1, ptr noundef %2) unnamed_addr #0 align 2 {
  %4 = getelementptr inbounds nuw i8, ptr %0, i64 176
  %5 = tail call noundef i64 @_ZNK5faiss9DirectMap3getEl(ptr noundef nonnull align 8 dereferenceable(88) %4, i64 noundef %1)
  %6 = lshr i64 %5, 32
  %7 = and i64 %5, 4294967295
  %8 = load ptr, ptr %0, align 8, !tbaa !14
  %9 = getelementptr inbounds nuw i8, ptr %8, i64 248
  %10 = load ptr, ptr %9, align 8
  tail call void %10(ptr noundef nonnull align 8 dereferenceable(265) %0, i64 noundef %6, i64 noundef %7, ptr noundef %2)
  ret void
}